target datalayout = "e-m:e-p270:32:32-p271:32:32-p272:64:64-i64:64-i128:128-f80:128-n8:16:32:64-S128"
target triple = "x86_64-pc-linux-gnu"

%struct.nameData = type { [64 x i8] }
%struct.ScanKeyData = type { i32, i16, i16, i32, i32, %struct.FmgrInfo, i64 }
%struct.FmgrInfo = type { ptr, i32, i16, i8, i8, i8, ptr, ptr, ptr }
%struct.FormData_pg_database = type { i32, %struct.nameData, i32, i32, i8, i8, i8, i8, i32, i32, i32, i32 }
%struct.HeapTupleData = type { i32, %struct.ItemPointerData, i32, ptr }
%struct.ItemPointerData = type { %struct.BlockIdData, i16 }
%struct.BlockIdData = type { i16, i16 }
%struct.HeapTupleHeaderData = type { %union.anon.1, %struct.ItemPointerData, i16, i16, i8, [0 x i8] }
%union.anon.1 = type { %struct.HeapTupleFields }
%struct.HeapTupleFields = type { i32, i32, %union.anon.2 }
%union.anon.2 = type { i32 }

@.str.18 = private unnamed_addr constant [13 x i8] c"dbcommands.c\00", align 1
@.str.79 = private unnamed_addr constant [29 x i8] c"database \22%s\22 does not exist\00", align 1
@__func__.get_database_oid = private unnamed_addr constant [17 x i8] c"get_database_oid\00", align 1

; Function Attrs: inlinehint nounwind uwtable
define internal i64 @PointerGetDatum(ptr noundef %0) #7 {
  %2 = alloca ptr, align 8
  store ptr %0, ptr %2, align 8
  %3 = load ptr, ptr %2, align 8
  %4 = ptrtoint ptr %3 to i64
  ret i64 %4
}

; Function Attrs: inlinehint nounwind uwtable
define internal ptr @GETSTRUCT(ptr noundef %0) #7 {
  %2 = alloca ptr, align 8
  store ptr %0, ptr %2, align 8
  %3 = load ptr, ptr %2, align 8
  %4 = getelementptr inbounds nuw %struct.HeapTupleData, ptr %3, i32 0, i32 3
  %5 = load ptr, ptr %4, align 8
  %6 = load ptr, ptr %2, align 8
  %7 = getelementptr inbounds nuw %struct.HeapTupleData, ptr %6, i32 0, i32 3
  %8 = load ptr, ptr %7, align 8
  %9 = getelementptr inbounds nuw %struct.HeapTupleHeaderData, ptr %8, i32 0, i32 4
  %10 = load i8, ptr %9, align 2
  %11 = zext i8 %10 to i32
  %12 = sext i32 %11 to i64
  %13 = getelementptr inbounds i8, ptr %5, i64 %12
  ret ptr %13
}

; Function Attrs: inlinehint nounwind uwtable
define internal i64 @CStringGetDatum(ptr noundef %0) #7 {
  %2 = alloca ptr, align 8
  store ptr %0, ptr %2, align 8
  %3 = load ptr, ptr %2, align 8
  %4 = call i64 @PointerGetDatum(ptr noundef %3)
  ret i64 %4
}

; Function Attrs: nounwind uwtable
define dso_local i32 @get_database_oid(ptr noundef %0, i1 noundef zeroext %1) #0 {
  %3 = alloca ptr, align 8
  %4 = alloca i8, align 1
  %5 = alloca ptr, align 8
  %6 = alloca [1 x %struct.ScanKeyData], align 16
  %7 = alloca ptr, align 8
  %8 = alloca ptr, align 8
  %9 = alloca i32, align 4
  store ptr %0, ptr %3, align 8
  %10 = zext i1 %1 to i8
  store i8 %10, ptr %4, align 1
  call void @llvm.lifetime.start.p0(i64 8, ptr %5) #14
  call void @llvm.lifetime.start.p0(i64 72, ptr %6) #14
  call void @llvm.lifetime.start.p0(i64 8, ptr %7) #14
  call void @llvm.lifetime.start.p0(i64 8, ptr %8) #14
  call void @llvm.lifetime.start.p0(i64 4, ptr %9) #14
  %11 = call ptr @table_open(i32 noundef 1262, i32 noundef 1)
  store ptr %11, ptr %5, align 8
  %12 = getelementptr inbounds [1 x %struct.ScanKeyData], ptr %6, i64 0, i64 0
  %13 = load ptr, ptr %3, align 8
  %14 = call i64 @CStringGetDatum(ptr noundef %13)
  call void @ScanKeyInit(ptr noundef %12, i16 noundef signext 2, i16 noundef zeroext 3, i32 noundef 62, i64 noundef %14)
  %15 = load ptr, ptr %5, align 8
  %16 = getelementptr inbounds [1 x %struct.ScanKeyData], ptr %6, i64 0, i64 0
  %17 = call ptr @systable_beginscan(ptr noundef %15, i32 noundef 2671, i1 noundef zeroext true, ptr noundef null, i32 noundef 1, ptr noundef %16)
  store ptr %17, ptr %7, align 8
  %18 = load ptr, ptr %7, align 8
  %19 = call ptr @systable_getnext(ptr noundef %18)
  store ptr %19, ptr %8, align 8
  %20 = load ptr, ptr %8, align 8
  %21 = icmp ne ptr %20, null
  br i1 %21, label %22, label %27

22:                                               ; preds = %2
  %23 = load ptr, ptr %8, align 8
  %24 = call ptr @GETSTRUCT(ptr noundef %23)
  %25 = getelementptr inbounds nuw %struct.FormData_pg_database, ptr %24, i32 0, i32 0
  %26 = load i32, ptr %25, align 4
  store i32 %26, ptr %9, align 4
  br label %28

27:                                               ; preds = %2
  store i32 0, ptr %9, align 4
  br label %28

28:                                               ; preds = %27, %22
  %29 = load ptr, ptr %7, align 8
  call void @systable_endscan(ptr noundef %29)
  %30 = load ptr, ptr %5, align 8
  call void @table_close(ptr noundef %30, i32 noundef 1)
  %31 = load i32, ptr %9, align 4
  %32 = icmp ne i32 %31, 0
  br i1 %32, label %49, label %33

33:                                               ; preds = %28
  %34 = load i8, ptr %4, align 1, !range !4, !noundef !5
  %35 = trunc i8 %34 to i1
  br i1 %35, label %49, label %36

36:                                               ; preds = %33
  br label %37

37:                                               ; preds = %36
  br i1 true, label %38, label %40

38:                                               ; preds = %37
  %39 = call zeroext i1 @errstart_cold(i32 noundef 21, ptr noundef null) #17
  br i1 %39, label %42, label %46

40:                                               ; preds = %37
  %41 = call zeroext i1 @errstart(i32 noundef 21, ptr noundef null)
  br i1 %41, label %42, label %46

42:                                               ; preds = %40, %38
  %43 = call i32 @errcode(i32 noundef 1283)
  %44 = load ptr, ptr %3, align 8
  %45 = call i32 (ptr, ...) @errmsg(ptr noundef @.str.79, ptr noundef %44)
  call void @errfinish(ptr noundef @.str.18, i32 noundef 3175, ptr noundef @__func__.get_database_oid)
  br label %46

46:                                               ; preds = %42, %40, %38
  unreachable

47:                                               ; No predecessors!
  br label %48

48:                                               ; preds = %47
  br label %49

49:                                               ; preds = %48, %33, %28
  %50 = load i32, ptr %9, align 4
  call void @llvm.lifetime.end.p0(i64 4, ptr %9) #14
  call void @llvm.lifetime.end.p0(i64 8, ptr %8) #14
  call void @llvm.lifetime.end.p0(i64 8, ptr %7) #14
  call void @llvm.lifetime.end.p0(i64 72, ptr %6) #14
  call void @llvm.lifetime.end.p0(i64 8, ptr %5) #14
  ret i32 %50
}