; Function Attrs: nounwind uwtable
define dso_local i32 @get_database_oid(ptr noundef %0, i1 noundef zeroext %1) local_unnamed_addr #0 {
  %3 = alloca [1 x %struct.ScanKeyData], align 16
  call void @llvm.lifetime.start.p0(i64 72, ptr nonnull %3) #16
  %4 = tail call ptr @table_open(i32 noundef 1262, i32 noundef 1) #16
  %5 = ptrtoint ptr %0 to i64
  call void @ScanKeyInit(ptr noundef nonnull %3, i16 noundef signext 2, i16 noundef zeroext 3, i32 noundef 62, i64 noundef %5) #16
  %6 = call ptr @systable_beginscan(ptr noundef %4, i32 noundef 2671, i1 noundef zeroext true, ptr noundef null, i32 noundef 1, ptr noundef nonnull %3) #16
  %7 = call ptr @systable_getnext(ptr noundef %6) #16
  %.not = icmp eq ptr %7, null
  br i1 %.not, label %15, label %8

8:                                                ; preds = %2
  %9 = getelementptr i8, ptr %7, i64 16
  %.val = load ptr, ptr %9, align 8
  %10 = getelementptr inbounds nuw i8, ptr %.val, i64 22
  %11 = load i8, ptr %10, align 2
  %12 = zext i8 %11 to i64
  %13 = getelementptr inbounds nuw i8, ptr %.val, i64 %12
  %14 = load i32, ptr %13, align 4
  br label %15

15:                                               ; preds = %2, %8
  %.0 = phi i32 [ %14, %8 ], [ 0, %2 ]
  call void @systable_endscan(ptr noundef %6) #16
  call void @table_close(ptr noundef %4, i32 noundef 1) #16
  %.not11 = icmp ne i32 %.0, 0
  %brmerge = or i1 %1, %.not11
  br i1 %brmerge, label %20, label %16

16:                                               ; preds = %15
  %17 = call zeroext i1 @errstart_cold(i32 noundef 21, ptr noundef null) #19
  call void @llvm.assume(i1 %17)
  %18 = call i32 @errcode(i32 noundef 1283) #16
  %19 = call i32 (ptr, ...) @errmsg(ptr noundef nonnull @.str.79, ptr noundef %0) #16
  call void @errfinish(ptr noundef nonnull @.str.18, i32 noundef 3175, ptr noundef nonnull @__func__.get_database_oid) #16
  unreachable

20:                                               ; preds = %15
  call void @llvm.lifetime.end.p0(i64 72, ptr nonnull %3) #16
  ret i32 %.0
}